; Function Attrs: mustprogress noinline uwtable
define dso_local void @_ZN4Luau7CodeGen3X6418AssemblyBuilderX646extendEv(ptr noundef nonnull align 8 dereferenceable(252) %0) local_unnamed_addr #4 align 2 {
  %2 = getelementptr inbounds nuw i8, ptr %0, i64 232
  %3 = load ptr, ptr %2, align 8, !tbaa !51
  %4 = getelementptr inbounds nuw i8, ptr %0, i64 24
  %5 = load ptr, ptr %4, align 8, !tbaa !49
  %6 = ptrtoint ptr %3 to i64
  %7 = ptrtoint ptr %5 to i64
  %8 = sub i64 %6, %7
  %9 = getelementptr inbounds nuw i8, ptr %0, i64 32
  %10 = load ptr, ptr %9, align 8, !tbaa !48
  %11 = ptrtoint ptr %10 to i64
  %12 = sub i64 %11, %7
  %13 = shl i64 %12, 1
  tail call void @_ZNSt6vectorIhSaIhEE6resizeEm(ptr noundef nonnull align 8 dereferenceable(24) %4, i64 noundef %13)
  %14 = load ptr, ptr %4, align 8, !tbaa !49
  %15 = and i64 %8, 4294967295
  %16 = getelementptr inbounds nuw i8, ptr %14, i64 %15
  store ptr %16, ptr %2, align 8, !tbaa !51
  %17 = load ptr, ptr %9, align 8, !tbaa !48
  %18 = ptrtoint ptr %17 to i64
  %19 = ptrtoint ptr %14 to i64
  %20 = sub i64 %18, %19
  %21 = getelementptr inbounds nuw i8, ptr %14, i64 %20
  %22 = getelementptr inbounds nuw i8, ptr %0, i64 240
  store ptr %21, ptr %22, align 8, !tbaa !52
  ret void
}